; Function Attrs: mustprogress nounwind uwtable
define dso_local void @_ZN4llvm13ScheduleDAGMI21findRootsAndBiasEdgesERNS_15SmallVectorImplIPNS_5SUnitEEES5_(ptr noundef nonnull align 8 dereferenceable(2704) %0, ptr noundef nonnull align 8 dereferenceable(16) %1, ptr noundef nonnull align 8 dereferenceable(16) %2) local_unnamed_addr #0 align 2 {
  %4 = getelementptr inbounds nuw i8, ptr %0, i64 48
  %5 = load ptr, ptr %4, align 8
  %6 = getelementptr inbounds nuw i8, ptr %0, i64 56
  %7 = load ptr, ptr %6, align 8
  %.not1617 = icmp eq ptr %5, %7
  br i1 %.not1617, label %._crit_edge, label %.lr.ph

.lr.ph:                                           ; preds = %3
  %8 = getelementptr inbounds nuw i8, ptr %1, i64 16
  %9 = getelementptr inbounds nuw i8, ptr %2, i64 16
  br label %10

10:                                               ; preds = %.lr.ph, %38
  %.sroa.013.018 = phi ptr [ %5, %.lr.ph ], [ %39, %38 ]
  tail call void @_ZN4llvm5SUnit16biasCriticalPathEv(ptr noundef nonnull align 8 dereferenceable(255) %.sroa.013.018) #28
  %11 = getelementptr inbounds nuw i8, ptr %.sroa.013.018, i64 216
  %12 = load i32, ptr %11, align 8
  %.not = icmp eq i32 %12, 0
  br i1 %.not, label %13, label %24

13:                                               ; preds = %10
  %14 = tail call noundef i64 @_ZNK4llvm15SmallVectorBaseIjE4sizeEv(ptr noundef nonnull align 8 dereferenceable(16) %1) #28
  %15 = add i64 %14, 1
  %16 = tail call noundef i64 @_ZNK4llvm15SmallVectorBaseIjE8capacityEv(ptr noundef nonnull align 8 dereferenceable(16) %1) #28
  %.not.i.i.i = icmp ugt i64 %15, %16
  br i1 %.not.i.i.i, label %17, label %_ZN4llvm23SmallVectorTemplateBaseIPNS_5SUnitELb1EE9push_backES2_.exit

17:                                               ; preds = %13
  tail call void @_ZN4llvm15SmallVectorBaseIjE8grow_podEPvmm(ptr noundef nonnull align 8 dereferenceable(16) %1, ptr noundef nonnull %8, i64 noundef %15, i64 noundef 8) #28
  br label %_ZN4llvm23SmallVectorTemplateBaseIPNS_5SUnitELb1EE9push_backES2_.exit

_ZN4llvm23SmallVectorTemplateBaseIPNS_5SUnitELb1EE9push_backES2_.exit: ; preds = %13, %17
  %18 = load ptr, ptr %1, align 8
  %19 = tail call noundef i64 @_ZNK4llvm15SmallVectorBaseIjE4sizeEv(ptr noundef nonnull align 8 dereferenceable(16) %1) #28
  %20 = getelementptr inbounds ptr, ptr %18, i64 %19
  %21 = ptrtoint ptr %.sroa.013.018 to i64
  store i64 %21, ptr %20, align 1
  %22 = tail call noundef i64 @_ZNK4llvm15SmallVectorBaseIjE4sizeEv(ptr noundef nonnull align 8 dereferenceable(16) %1) #28
  %23 = add i64 %22, 1
  tail call void @_ZN4llvm15SmallVectorBaseIjE8set_sizeEm(ptr noundef nonnull align 8 dereferenceable(16) %1, i64 noundef %23) #28
  br label %24

24:                                               ; preds = %_ZN4llvm23SmallVectorTemplateBaseIPNS_5SUnitELb1EE9push_backES2_.exit, %10
  %25 = getelementptr inbounds nuw i8, ptr %.sroa.013.018, i64 220
  %26 = load i32, ptr %25, align 4
  %.not10 = icmp eq i32 %26, 0
  br i1 %.not10, label %27, label %38

27:                                               ; preds = %24
  %28 = tail call noundef i64 @_ZNK4llvm15SmallVectorBaseIjE4sizeEv(ptr noundef nonnull align 8 dereferenceable(16) %2) #28
  %29 = add i64 %28, 1
  %30 = tail call noundef i64 @_ZNK4llvm15SmallVectorBaseIjE8capacityEv(ptr noundef nonnull align 8 dereferenceable(16) %2) #28
  %.not.i.i.i11 = icmp ugt i64 %29, %30
  br i1 %.not.i.i.i11, label %31, label %_ZN4llvm23SmallVectorTemplateBaseIPNS_5SUnitELb1EE9push_backES2_.exit12

31:                                               ; preds = %27
  tail call void @_ZN4llvm15SmallVectorBaseIjE8grow_podEPvmm(ptr noundef nonnull align 8 dereferenceable(16) %2, ptr noundef nonnull %9, i64 noundef %29, i64 noundef 8) #28
  br label %_ZN4llvm23SmallVectorTemplateBaseIPNS_5SUnitELb1EE9push_backES2_.exit12

_ZN4llvm23SmallVectorTemplateBaseIPNS_5SUnitELb1EE9push_backES2_.exit12: ; preds = %27, %31
  %32 = load ptr, ptr %2, align 8
  %33 = tail call noundef i64 @_ZNK4llvm15SmallVectorBaseIjE4sizeEv(ptr noundef nonnull align 8 dereferenceable(16) %2) #28
  %34 = getelementptr inbounds ptr, ptr %32, i64 %33
  %35 = ptrtoint ptr %.sroa.013.018 to i64
  store i64 %35, ptr %34, align 1
  %36 = tail call noundef i64 @_ZNK4llvm15SmallVectorBaseIjE4sizeEv(ptr noundef nonnull align 8 dereferenceable(16) %2) #28
  %37 = add i64 %36, 1
  tail call void @_ZN4llvm15SmallVectorBaseIjE8set_sizeEm(ptr noundef nonnull align 8 dereferenceable(16) %2, i64 noundef %37) #28
  br label %38

38:                                               ; preds = %24, %_ZN4llvm23SmallVectorTemplateBaseIPNS_5SUnitELb1EE9push_backES2_.exit12
  %39 = getelementptr inbounds nuw i8, ptr %.sroa.013.018, i64 256
  %.not16 = icmp eq ptr %39, %7
  br i1 %.not16, label %._crit_edge, label %10

._crit_edge:                                      ; preds = %38, %3
  %40 = getelementptr inbounds nuw i8, ptr %0, i64 328
  tail call void @_ZN4llvm5SUnit16biasCriticalPathEv(ptr noundef nonnull align 8 dereferenceable(255) %40) #28
  ret void
}